target datalayout = "e-m:e-p270:32:32-p271:32:32-p272:64:64-i64:64-i128:128-f80:128-n8:16:32:64-S128"
target triple = "x86_64-pc-linux-gnu"

%struct.tng_gen_block = type { i64, i64, i64, [16 x i8], ptr, i64, i64, i64, ptr, i64, i64, ptr, ptr, ptr }

; Function Attrs: nounwind uwtable
define internal i32 @tng_block_destroy(ptr noundef %0) #0 {
  %2 = alloca i32, align 4
  %3 = alloca ptr, align 8
  %4 = alloca ptr, align 8
  %5 = alloca i32, align 4
  store ptr %0, ptr %3, align 8, !tbaa !235
  call void @llvm.lifetime.start.p0(i64 8, ptr %4) #11
  %6 = load ptr, ptr %3, align 8, !tbaa !235
  %7 = load ptr, ptr %6, align 8, !tbaa !221
  store ptr %7, ptr %4, align 8, !tbaa !221
  %8 = load ptr, ptr %3, align 8, !tbaa !235
  %9 = load ptr, ptr %8, align 8, !tbaa !221
  %10 = icmp ne ptr %9, null
  br i1 %10, label %12, label %11

11:                                               ; preds = %1
  store i32 0, ptr %2, align 4
  store i32 1, ptr %5, align 4
  br label %49

12:                                               ; preds = %1
  %13 = load ptr, ptr %4, align 8, !tbaa !221
  %14 = getelementptr inbounds nuw %struct.tng_gen_block, ptr %13, i32 0, i32 4
  %15 = load ptr, ptr %14, align 8, !tbaa !237
  %16 = icmp ne ptr %15, null
  br i1 %16, label %17, label %23

17:                                               ; preds = %12
  %18 = load ptr, ptr %4, align 8, !tbaa !221
  %19 = getelementptr inbounds nuw %struct.tng_gen_block, ptr %18, i32 0, i32 4
  %20 = load ptr, ptr %19, align 8, !tbaa !237
  call void @free(ptr noundef %20) #11
  %21 = load ptr, ptr %4, align 8, !tbaa !221
  %22 = getelementptr inbounds nuw %struct.tng_gen_block, ptr %21, i32 0, i32 4
  store ptr null, ptr %22, align 8, !tbaa !237
  br label %23

23:                                               ; preds = %17, %12
  %24 = load ptr, ptr %4, align 8, !tbaa !221
  %25 = getelementptr inbounds nuw %struct.tng_gen_block, ptr %24, i32 0, i32 12
  %26 = load ptr, ptr %25, align 8, !tbaa !239
  %27 = icmp ne ptr %26, null
  br i1 %27, label %28, label %34

28:                                               ; preds = %23
  %29 = load ptr, ptr %4, align 8, !tbaa !221
  %30 = getelementptr inbounds nuw %struct.tng_gen_block, ptr %29, i32 0, i32 12
  %31 = load ptr, ptr %30, align 8, !tbaa !239
  call void @free(ptr noundef %31) #11
  %32 = load ptr, ptr %4, align 8, !tbaa !221
  %33 = getelementptr inbounds nuw %struct.tng_gen_block, ptr %32, i32 0, i32 12
  store ptr null, ptr %33, align 8, !tbaa !239
  br label %34

34:                                               ; preds = %28, %23
  %35 = load ptr, ptr %4, align 8, !tbaa !221
  %36 = getelementptr inbounds nuw %struct.tng_gen_block, ptr %35, i32 0, i32 13
  %37 = load ptr, ptr %36, align 8, !tbaa !240
  %38 = icmp ne ptr %37, null
  br i1 %38, label %39, label %45

39:                                               ; preds = %34
  %40 = load ptr, ptr %4, align 8, !tbaa !221
  %41 = getelementptr inbounds nuw %struct.tng_gen_block, ptr %40, i32 0, i32 13
  %42 = load ptr, ptr %41, align 8, !tbaa !240
  call void @free(ptr noundef %42) #11
  %43 = load ptr, ptr %4, align 8, !tbaa !221
  %44 = getelementptr inbounds nuw %struct.tng_gen_block, ptr %43, i32 0, i32 13
  store ptr null, ptr %44, align 8, !tbaa !240
  br label %45

45:                                               ; preds = %39, %34
  %46 = load ptr, ptr %3, align 8, !tbaa !235
  %47 = load ptr, ptr %46, align 8, !tbaa !221
  call void @free(ptr noundef %47) #11
  %48 = load ptr, ptr %3, align 8, !tbaa !235
  store ptr null, ptr %48, align 8, !tbaa !221
  store i32 0, ptr %2, align 4
  store i32 1, ptr %5, align 4
  br label %49

49:                                               ; preds = %45, %11
  call void @llvm.lifetime.end.p0(i64 8, ptr %4) #11
  %50 = load i32, ptr %2, align 4
  ret i32 %50
}