; Function Attrs: mustprogress nounwind willreturn uwtable
define internal fastcc void @tng_block_destroy(ptr noundef nonnull captures(none) %0) unnamed_addr #19 {
  %2 = load ptr, ptr %0, align 8, !tbaa !210
  %.not = icmp eq ptr %2, null
  br i1 %.not, label %17, label %3

3:                                                ; preds = %1
  %4 = getelementptr inbounds nuw i8, ptr %2, i64 40
  %5 = load ptr, ptr %4, align 8, !tbaa !187
  %.not16 = icmp eq ptr %5, null
  br i1 %.not16, label %7, label %6

6:                                                ; preds = %3
  tail call void @free(ptr noundef nonnull %5) #26
  store ptr null, ptr %4, align 8, !tbaa !187
  br label %7

7:                                                ; preds = %6, %3
  %8 = getelementptr inbounds nuw i8, ptr %2, i64 104
  %9 = load ptr, ptr %8, align 8, !tbaa !188
  %.not17 = icmp eq ptr %9, null
  br i1 %.not17, label %11, label %10

10:                                               ; preds = %7
  tail call void @free(ptr noundef nonnull %9) #26
  store ptr null, ptr %8, align 8, !tbaa !188
  br label %11

11:                                               ; preds = %10, %7
  %12 = getelementptr inbounds nuw i8, ptr %2, i64 112
  %13 = load ptr, ptr %12, align 8, !tbaa !189
  %.not18 = icmp eq ptr %13, null
  br i1 %.not18, label %15, label %14

14:                                               ; preds = %11
  tail call void @free(ptr noundef nonnull %13) #26
  store ptr null, ptr %12, align 8, !tbaa !189
  br label %15

15:                                               ; preds = %14, %11
  %16 = load ptr, ptr %0, align 8, !tbaa !210
  tail call void @free(ptr noundef %16) #26
  store ptr null, ptr %0, align 8, !tbaa !210
  br label %17

17:                                               ; preds = %1, %15
  ret void
}